Certificate:
    Data:
        Version: 3 (0x2)
        Serial Number: 1 (0x1)
    Signature Algorithm: sha256WithRSAEncryption
        Issuer: CN=devcert
        Validity
            Not Before: Apr 19 07:56:22 2020 GMT
            Not After : Jul 23 07:56:22 2022 GMT
        Subject: CN=localhost
        Subject Public Key Info:
            Public Key Algorithm: rsaEncryption
                Public-Key: (2048 bit)
                Modulus:
                    00:c7:aa:3a:f1:6f:eb:8c:18:d6:53:ee:d9:30:7e:
                    3d:6c:12:af:7d:b3:38:92:3c:7b:cc:ef:40:5b:df:
                    f9:13:86:d2:ad:b3:88:68:f9:d2:db:d8:c6:37:3f:
                    80:1c:75:a0:2d:5b:9d:2d:40:a2:27:15:56:ce:da:
                    4e:06:81:bd:a4:37:9d:61:cb:43:bf:98:3c:1c:62:
                    59:69:cc:f0:0a:f8:0f:6c:b0:42:f4:15:0f:92:44:
                    fe:dd:dc:08:d7:17:fc:03:6c:b2:98:57:c5:2c:bc:
                    3f:7c:a1:26:36:ab:98:29:61:a2:68:d4:2f:7a:0c:
                    ae:d7:f0:78:8e:82:a6:3c:de:7a:94:59:59:75:be:
                    a6:5f:3a:4f:15:3e:35:04:5c:30:60:dc:3b:91:42:
                    00:c5:a2:02:d1:ae:b4:66:93:50:64:5a:c4:ba:f0:
                    4d:f0:17:3e:f8:78:e1:6d:b5:19:2a:8e:87:33:08:
                    d4:1d:eb:d7:3a:46:ad:a8:8a:76:37:89:d7:e5:3e:
                    8b:91:ed:05:4e:e7:21:0e:88:be:40:40:e7:d7:98:
                    1b:db:30:af:09:55:8c:af:fe:da:84:fc:d7:99:64:
                    a9:eb:36:7c:19:22:58:88:f0:ac:c2:40:3e:c6:3d:
                    00:49:ec:a6:f3:41:5f:41:f5:88:e9:da:21:1a:81:
                    2a:cd
                Exponent: 65537 (0x10001)
        X509v3 extensions:
            X509v3 Basic Constraints: critical
                CA:FALSE
            X509v3 Subject Key Identifier: 
                05:7F:AE:02:3B:5D:5D:0E:65:D0:B9:CE:33:E3:18:DD:FC:3C:7E:8A
            X509v3 Authority Key Identifier: 
                keyid:09:D0:FF:7E:70:BF:B0:02:06:7E:79:9C:8B:AD:27:0E:B2:00:C8:45
                DirName:/CN=devcert
                serial:E1:02:7A:31:01:0E:23:1B

            X509v3 Key Usage: critical
                Digital Signature, Key Encipherment
            X509v3 Extended Key Usage: 
                TLS Web Server Authentication
            X509v3 Subject Alternative Name: 
                DNS:localhost, DNS:*.localhost
    Signature Algorithm: sha256WithRSAEncryption
         40:6e:98:d1:95:b9:20:fb:80:ac:df:ff:c4:10:09:0a:83:55:
         3c:df:81:50:97:c7:19:29:4b:dd:39:3e:c3:8b:02:41:31:b3:
         bb:ee:5d:27:43:fc:d0:22:f5:e2:fa:8b:04:5d:13:d3:a1:63:
         09:80:dc:ba:ca:85:69:a9:4f:40:12:73:16:9a:e9:c0:74:b3:
         f0:29:b7:c8:1b:86:6d:e8:49:e2:87:3b:30:6e:60:b8:89:d8:
         1d:7a:0d:0e:87:17:6e:90:fb:58:c6:ba:ba:84:9e:61:27:c3:
         ea:76:a9:e7:43:d9:b9:e4:2d:88:c9:1d:9a:73:ae:55:3f:57:
         2a:e8:db:c7:c6:ca:b0:f1:ee:10:9f:a6:43:04:cf:5c:21:f5:
         01:40:ea:92:2c:27:53:80:99:04:16:40:a5:ca:af:00:2b:c2:
         74:12:99:ba:67:e0:00:e1:aa:63:81:4f:ba:fe:6c:4a:5b:ef:
         d3:03:73:01:07:b3:80:23:b0:c0:75:46:4c:fb:56:25:c0:93:
         88:c3:fe:91:92:f7:e5:0b:46:2d:9a:27:8b:19:cc:90:60:f1:
         bb:27:27:5e:03:5a:b0:50:2c:29:7f:82:00:f9:31:37:89:1b:
         1b:7b:a2:a8:90:2b:69:c5:86:6c:1d:d3:af:a6:bb:1d:45:d5:
         3e:1b:ab:74
-----BEGIN CERTIFICATE-----
MIIDXjCCAkagAwIBAgIBATANBgkqhkiG9w0BAQsFADASMRAwDgYDVQQDDAdkZXZj
ZXJ0MB4XDTIwMDQxOTA3NTYyMloXDTIyMDcyMzA3NTYyMlowFDESMBAGA1UEAwwJ
bG9jYWxob3N0MIIBIjANBgkqhkiG9w0BAQEFAAOCAQ8AMIIBCgKCAQEAx6o68W/r
jBjWU+7ZMH49bBKvfbM4kjx7zO9AW9/5E4bSrbOIaPnS29jGNz+AHHWgLVudLUCi
JxVWztpOBoG9pDedYctDv5g8HGJZaczwCvgPbLBC9BUPkkT+3dwI1xf8A2yymFfF
LLw/fKEmNquYKWGiaNQvegyu1/B4joKmPN56lFlZdb6mXzpPFT41BFwwYNw7kUIA
xaIC0a60ZpNQZFrEuvBN8Bc++HjhbbUZKo6HMwjUHevXOkatqIp2N4nX5T6Lke0F
TuchDoi+QEDn15gb2zCvCVWMr/7ahPzXmWSp6zZ8GSJYiPCswkA+xj0ASeym80Ff
QfWI6dohGoEqzQIDAQABo4G8MIG5MAwGA1UdEwEB/wQCMAAwHQYDVR0OBBYEFAV/
rgI7XV0OZdC5zjPjGN38PH6KMEIGA1UdIwQ7MDmAFAnQ/35wv7ACBn55nIutJw6y
AMhFoRakFDASMRAwDgYDVQQDDAdkZXZjZXJ0ggkA4QJ6MQEOIxswDgYDVR0PAQH/
BAQDAgWgMBMGA1UdJQQMMAoGCCsGAQUFBwMBMCEGA1UdEQQaMBiCCWxvY2FsaG9z
dIILKi5sb2NhbGhvc3QwDQYJKoZIhvcNAQELBQADggEBAEBumNGVuSD7gKzf/8QQ
CQqDVTzfgVCXxxkpS905PsOLAkExs7vuXSdD/NAi9eL6iwRdE9OhYwmA3LrKhWmp
T0AScxaa6cB0s/Apt8gbhm3oSeKHOzBuYLiJ2B16DQ6HF26Q+1jGurqEnmEnw+p2
qedD2bnkLYjJHZpzrlU/Vyro28fGyrDx7hCfpkMEz1wh9QFA6pIsJ1OAmQQWQKXK
rwArwnQSmbpn4ADhqmOBT7r+bEpb79MDcwEHs4AjsMB1Rkz7ViXAk4jD/pGS9+UL
Ri2aJ4sZzJBg8bsnJ14DWrBQLCl/ggD5MTeJGxt7oqiQK2nFhmwd06+mux1F1T4b
q3Q=
-----END CERTIFICATE-----
